target datalayout = "e-m:e-p270:32:32-p271:32:32-p272:64:64-i64:64-i128:128-f80:128-n8:16:32:64-S128"
target triple = "x86_64-pc-linux-gnu"

%"class.std::__shared_count" = type { ptr }
%"class.std::shared_ptr.8" = type { %"class.std::__shared_ptr.9" }
%"class.std::__shared_ptr.9" = type { ptr, %"class.std::__shared_count" }
%"class.pxrInternal_v0_24__pxrReserved__::UsdZipFile" = type { %"class.std::shared_ptr.11" }
%"class.std::shared_ptr.11" = type { %"class.std::__shared_ptr.12" }
%"class.std::__shared_ptr.12" = type { ptr, %"class.std::__shared_count" }
%"class.pxrInternal_v0_24__pxrReserved__::(anonymous namespace)::_Asset" = type { %"class.pxrInternal_v0_24__pxrReserved__::ArAsset", %"class.std::shared_ptr.8", %"class.pxrInternal_v0_24__pxrReserved__::UsdZipFile", ptr, i64, i64 }
%"class.pxrInternal_v0_24__pxrReserved__::ArAsset" = type { ptr }
%"struct.std::pair.64" = type { ptr, i64 }

; Function Attrs: mustprogress nounwind uwtable
define linkonce_odr noundef ptr @_ZNKSt12__shared_ptrIN32pxrInternal_v0_24__pxrReserved__7ArAssetELN9__gnu_cxx12_Lock_policyE2EE3getEv(ptr noundef nonnull align 8 dereferenceable(16) %0) #2 comdat align 2 {
  %2 = alloca ptr, align 8
  store ptr %0, ptr %2, align 8
  %3 = load ptr, ptr %2, align 8
  %4 = getelementptr inbounds nuw %"class.std::__shared_ptr.9", ptr %3, i32 0, i32 0
  %5 = load ptr, ptr %4, align 8
  ret ptr %5
}

; Function Attrs: mustprogress nounwind uwtable
define linkonce_odr noundef ptr @_ZNKSt19__shared_ptr_accessIN32pxrInternal_v0_24__pxrReserved__7ArAssetELN9__gnu_cxx12_Lock_policyE2ELb0ELb0EE6_M_getEv(ptr noundef nonnull align 1 dereferenceable(1) %0) #2 comdat align 2 {
  %2 = alloca ptr, align 8
  store ptr %0, ptr %2, align 8
  %3 = load ptr, ptr %2, align 8
  %4 = call noundef ptr @_ZNKSt12__shared_ptrIN32pxrInternal_v0_24__pxrReserved__7ArAssetELN9__gnu_cxx12_Lock_policyE2EE3getEv(ptr noundef nonnull align 8 dereferenceable(16) %3) #1
  ret ptr %4
}

; Function Attrs: mustprogress nounwind uwtable
define linkonce_odr noundef ptr @_ZNKSt19__shared_ptr_accessIN32pxrInternal_v0_24__pxrReserved__7ArAssetELN9__gnu_cxx12_Lock_policyE2ELb0ELb0EEptEv(ptr noundef nonnull align 1 dereferenceable(1) %0) #2 comdat align 2 {
  %2 = alloca ptr, align 8
  store ptr %0, ptr %2, align 8
  %3 = load ptr, ptr %2, align 8
  %4 = call noundef ptr @_ZNKSt19__shared_ptr_accessIN32pxrInternal_v0_24__pxrReserved__7ArAssetELN9__gnu_cxx12_Lock_policyE2ELb0ELb0EE6_M_getEv(ptr noundef nonnull align 1 dereferenceable(1) %3) #1
  ret ptr %4
}

; Function Attrs: mustprogress uwtable
define internal { ptr, i64 } @_ZNK32pxrInternal_v0_24__pxrReserved__12_GLOBAL__N_16_Asset13GetFileUnsafeEv(ptr noundef nonnull align 8 dereferenceable(64) %0) unnamed_addr #0 align 2 {
  %2 = alloca %"struct.std::pair.64", align 8
  %3 = alloca ptr, align 8
  store ptr %0, ptr %3, align 8
  %4 = load ptr, ptr %3, align 8
  %5 = getelementptr inbounds nuw %"class.pxrInternal_v0_24__pxrReserved__::(anonymous namespace)::_Asset", ptr %4, i32 0, i32 1
  %6 = call noundef ptr @_ZNKSt19__shared_ptr_accessIN32pxrInternal_v0_24__pxrReserved__7ArAssetELN9__gnu_cxx12_Lock_policyE2ELb0ELb0EEptEv(ptr noundef nonnull align 1 dereferenceable(1) %5) #1
  %7 = load ptr, ptr %6, align 8
  %8 = getelementptr inbounds ptr, ptr %7, i64 5
  %9 = load ptr, ptr %8, align 8
  %10 = call { ptr, i64 } %9(ptr noundef nonnull align 8 dereferenceable(8) %6)
  %11 = getelementptr inbounds nuw { ptr, i64 }, ptr %2, i32 0, i32 0
  %12 = extractvalue { ptr, i64 } %10, 0
  store ptr %12, ptr %11, align 8
  %13 = getelementptr inbounds nuw { ptr, i64 }, ptr %2, i32 0, i32 1
  %14 = extractvalue { ptr, i64 } %10, 1
  store i64 %14, ptr %13, align 8
  %15 = getelementptr inbounds nuw %"struct.std::pair.64", ptr %2, i32 0, i32 0
  %16 = load ptr, ptr %15, align 8
  %17 = icmp ne ptr %16, null
  br i1 %17, label %18, label %24

18:                                               ; preds = %1
  %19 = getelementptr inbounds nuw %"class.pxrInternal_v0_24__pxrReserved__::(anonymous namespace)::_Asset", ptr %4, i32 0, i32 4
  %20 = load i64, ptr %19, align 8
  %21 = getelementptr inbounds nuw %"struct.std::pair.64", ptr %2, i32 0, i32 1
  %22 = load i64, ptr %21, align 8
  %23 = add i64 %22, %20
  store i64 %23, ptr %21, align 8
  br label %24

24:                                               ; preds = %18, %1
  %25 = load { ptr, i64 }, ptr %2, align 8
  ret { ptr, i64 } %25
}