; Function Attrs: mustprogress uwtable
define internal { ptr, i64 } @_ZNK32pxrInternal_v0_24__pxrReserved__12_GLOBAL__N_16_Asset13GetFileUnsafeEv(ptr nocapture noundef nonnull readonly align 8 dereferenceable(64) %0) unnamed_addr #0 align 2 {
  %2 = getelementptr inbounds nuw i8, ptr %0, i64 8
  %3 = load ptr, ptr %2, align 8
  %4 = load ptr, ptr %3, align 8
  %5 = getelementptr inbounds i8, ptr %4, i64 40
  %6 = load ptr, ptr %5, align 8
  %7 = tail call { ptr, i64 } %6(ptr noundef nonnull align 8 dereferenceable(8) %3)
  %8 = extractvalue { ptr, i64 } %7, 0
  %9 = extractvalue { ptr, i64 } %7, 1
  %.not = icmp eq ptr %8, null
  %10 = getelementptr inbounds nuw i8, ptr %0, i64 48
  %11 = load i64, ptr %10, align 8
  %12 = select i1 %.not, i64 0, i64 %11
  %.sroa.3.0 = add i64 %12, %9
  %.fca.1.insert = insertvalue { ptr, i64 } %7, i64 %.sroa.3.0, 1
  ret { ptr, i64 } %.fca.1.insert
}